target datalayout = "e-m:e-p270:32:32-p271:32:32-p272:64:64-i64:64-i128:128-f80:128-n8:16:32:64-S128"
target triple = "x86_64-pc-linux-gnu"

%"struct.ozz::animation::LocalToModelJob" = type { ptr, ptr, i32, i32, i8, %"struct.ozz::span", %"struct.ozz::span.0" }
%"struct.ozz::span" = type { ptr, i64 }
%"struct.ozz::span.0" = type { ptr, i64 }
%"class.ozz::animation::Skeleton" = type { ptr, %"struct.ozz::span.1", %"struct.ozz::span.2", %"struct.ozz::span.3" }
%"struct.ozz::span.1" = type { ptr, i64 }
%"struct.ozz::span.2" = type { ptr, i64 }
%"struct.ozz::span.3" = type { ptr, i64 }

; Function Attrs: mustprogress nounwind uwtable
define linkonce_odr dso_local noundef i64 @_ZNK3ozz4spanIsE4sizeEv(ptr noundef nonnull align 8 dereferenceable(16) %0) #2 comdat align 2 {
  %2 = alloca ptr, align 8
  store ptr %0, ptr %2, align 8, !tbaa !56
  %3 = load ptr, ptr %2, align 8
  %4 = getelementptr inbounds nuw %"struct.ozz::span.2", ptr %3, i32 0, i32 1
  %5 = load i64, ptr %4, align 8, !tbaa !58
  ret i64 %5
}

; Function Attrs: mustprogress nounwind uwtable
define linkonce_odr dso_local noundef i64 @_ZNK3ozz4spanINS_4math8Float4x4EE4sizeEv(ptr noundef nonnull align 8 dereferenceable(16) %0) #2 comdat align 2 {
  %2 = alloca ptr, align 8
  store ptr %0, ptr %2, align 8, !tbaa !27
  %3 = load ptr, ptr %2, align 8
  %4 = getelementptr inbounds nuw %"struct.ozz::span.0", ptr %3, i32 0, i32 1
  %5 = load i64, ptr %4, align 8, !tbaa !29
  ret i64 %5
}

; Function Attrs: mustprogress nounwind uwtable
define linkonce_odr dso_local noundef i64 @_ZNK3ozz4spanIKNS_4math12SoaTransformEE4sizeEv(ptr noundef nonnull align 8 dereferenceable(16) %0) #2 comdat align 2 {
  %2 = alloca ptr, align 8
  store ptr %0, ptr %2, align 8, !tbaa !24
  %3 = load ptr, ptr %2, align 8
  %4 = getelementptr inbounds nuw %"struct.ozz::span", ptr %3, i32 0, i32 1
  %5 = load i64, ptr %4, align 8, !tbaa !26
  ret i64 %5
}

; Function Attrs: mustprogress uwtable
define linkonce_odr dso_local noundef i32 @_ZNK3ozz9animation8Skeleton10num_jointsEv(ptr noundef nonnull align 8 dereferenceable(56) %0) #0 comdat align 2 {
  %2 = alloca ptr, align 8
  store ptr %0, ptr %2, align 8, !tbaa !23
  %3 = load ptr, ptr %2, align 8
  %4 = getelementptr inbounds nuw %"class.ozz::animation::Skeleton", ptr %3, i32 0, i32 2
  %5 = call noundef i64 @_ZNK3ozz4spanIsE4sizeEv(ptr noundef nonnull align 8 dereferenceable(16) %4)
  %6 = trunc i64 %5 to i32
  ret i32 %6
}

; Function Attrs: mustprogress uwtable
define dso_local noundef zeroext i1 @_ZNK3ozz9animation15LocalToModelJob8ValidateEv(ptr noundef nonnull align 8 dereferenceable(64) %0) #0 align 2 {
  %2 = alloca i1, align 1
  %3 = alloca ptr, align 8
  %4 = alloca i8, align 1
  %5 = alloca i32, align 4
  %6 = alloca i64, align 8
  %7 = alloca i64, align 8
  store ptr %0, ptr %3, align 8, !tbaa !4
  %8 = load ptr, ptr %3, align 8
  call void @llvm.lifetime.start.p0(i64 1, ptr %4) #9
  store i8 1, ptr %4, align 1, !tbaa !9
  %9 = getelementptr inbounds nuw %"struct.ozz::animation::LocalToModelJob", ptr %8, i32 0, i32 0
  %10 = load ptr, ptr %9, align 8, !tbaa !11
  %11 = icmp ne ptr %10, null
  br i1 %11, label %13, label %12

12:                                               ; preds = %1
  store i1 false, ptr %2, align 1
  store i32 1, ptr %5, align 4
  br label %45

13:                                               ; preds = %1
  call void @llvm.lifetime.start.p0(i64 8, ptr %6) #9
  %14 = getelementptr inbounds nuw %"struct.ozz::animation::LocalToModelJob", ptr %8, i32 0, i32 0
  %15 = load ptr, ptr %14, align 8, !tbaa !11
  %16 = call noundef i32 @_ZNK3ozz9animation8Skeleton10num_jointsEv(ptr noundef nonnull align 8 dereferenceable(56) %15)
  %17 = sext i32 %16 to i64
  store i64 %17, ptr %6, align 8, !tbaa !20
  call void @llvm.lifetime.start.p0(i64 8, ptr %7) #9
  %18 = load i64, ptr %6, align 8, !tbaa !20
  %19 = add i64 %18, 3
  %20 = udiv i64 %19, 4
  store i64 %20, ptr %7, align 8, !tbaa !20
  %21 = getelementptr inbounds nuw %"struct.ozz::animation::LocalToModelJob", ptr %8, i32 0, i32 5
  %22 = call noundef i64 @_ZNK3ozz4spanIKNS_4math12SoaTransformEE4sizeEv(ptr noundef nonnull align 8 dereferenceable(16) %21)
  %23 = load i64, ptr %7, align 8, !tbaa !20
  %24 = icmp uge i64 %22, %23
  %25 = zext i1 %24 to i32
  %26 = load i8, ptr %4, align 1, !tbaa !9, !range !21, !noundef !22
  %27 = trunc i8 %26 to i1
  %28 = zext i1 %27 to i32
  %29 = and i32 %28, %25
  %30 = icmp ne i32 %29, 0
  %31 = zext i1 %30 to i8
  store i8 %31, ptr %4, align 1, !tbaa !9
  %32 = getelementptr inbounds nuw %"struct.ozz::animation::LocalToModelJob", ptr %8, i32 0, i32 6
  %33 = call noundef i64 @_ZNK3ozz4spanINS_4math8Float4x4EE4sizeEv(ptr noundef nonnull align 8 dereferenceable(16) %32)
  %34 = load i64, ptr %6, align 8, !tbaa !20
  %35 = icmp uge i64 %33, %34
  %36 = zext i1 %35 to i32
  %37 = load i8, ptr %4, align 1, !tbaa !9, !range !21, !noundef !22
  %38 = trunc i8 %37 to i1
  %39 = zext i1 %38 to i32
  %40 = and i32 %39, %36
  %41 = icmp ne i32 %40, 0
  %42 = zext i1 %41 to i8
  store i8 %42, ptr %4, align 1, !tbaa !9
  %43 = load i8, ptr %4, align 1, !tbaa !9, !range !21, !noundef !22
  %44 = trunc i8 %43 to i1
  store i1 %44, ptr %2, align 1
  store i32 1, ptr %5, align 4
  call void @llvm.lifetime.end.p0(i64 8, ptr %7) #9
  call void @llvm.lifetime.end.p0(i64 8, ptr %6) #9
  br label %45

45:                                               ; preds = %13, %12
  call void @llvm.lifetime.end.p0(i64 1, ptr %4) #9
  %46 = load i1, ptr %2, align 1
  ret i1 %46
}