; Function Attrs: mustprogress nofree norecurse nosync nounwind willreturn memory(read, inaccessiblemem: none) uwtable
define dso_local noundef zeroext i1 @_ZNK3ozz9animation15LocalToModelJob8ValidateEv(ptr noundef nonnull readonly align 8 captures(none) dereferenceable(64) %0) local_unnamed_addr #0 align 2 {
  %2 = load ptr, ptr %0, align 8, !tbaa !4
  %.not = icmp eq ptr %2, null
  br i1 %.not, label %16, label %3

3:                                                ; preds = %1
  %4 = getelementptr inbounds nuw i8, ptr %2, i64 32
  %5 = load i64, ptr %4, align 8, !tbaa !17
  %sext = shl i64 %5, 32
  %6 = ashr exact i64 %sext, 32
  %7 = add nsw i64 %6, 3
  %8 = lshr i64 %7, 2
  %9 = getelementptr inbounds nuw i8, ptr %0, i64 40
  %10 = load i64, ptr %9, align 8, !tbaa !20
  %11 = icmp uge i64 %10, %8
  %12 = getelementptr inbounds nuw i8, ptr %0, i64 56
  %13 = load i64, ptr %12, align 8, !tbaa !21
  %14 = icmp uge i64 %13, %6
  %15 = and i1 %14, %11
  br label %16

16:                                               ; preds = %1, %3
  %.0 = phi i1 [ %15, %3 ], [ false, %1 ]
  ret i1 %.0
}